target datalayout = "e-m:e-p270:32:32-p271:32:32-p272:64:64-i64:64-i128:128-f80:128-n8:16:32:64-S128"
target triple = "x86_64-pc-linux-gnu"

%"struct.ue2::engine_info" = type <{ i32, i8, [3 x i8], i32, i32, i32, i8, [3 x i8] }>
%struct.NFA = type { i32, i32, i8, i8, i8, i8, %union.anon, i32, i32, i32, i32, i32, i32, i32, [20 x i8] }
%union.anon = type { i16 }

; Function Attrs: alwaysinline mustprogress nounwind uwtable
define internal noundef i32 @_ZL13nfaAcceptsEodPK3NFA(ptr noundef %0) #4 {
  %2 = alloca ptr, align 8
  store ptr %0, ptr %2, align 8
  %3 = load ptr, ptr %2, align 8
  %4 = getelementptr inbounds nuw %struct.NFA, ptr %3, i32 0, i32 0
  %5 = load i32, ptr %4, align 64
  %6 = and i32 %5, 1
  ret i32 %6
}

; Function Attrs: mustprogress uwtable
define hidden void @_ZN3ue211engine_infoC2EPK3NFAb(ptr noundef nonnull align 4 dereferenceable(21) %0, ptr noundef %1, i1 noundef zeroext %2) unnamed_addr #3 align 2 {
  %4 = alloca ptr, align 8
  %5 = alloca ptr, align 8
  %6 = alloca i8, align 1
  store ptr %0, ptr %4, align 8
  store ptr %1, ptr %5, align 8
  %7 = zext i1 %2 to i8
  store i8 %7, ptr %6, align 1
  %8 = load ptr, ptr %4, align 8
  %9 = getelementptr inbounds nuw %"struct.ue2::engine_info", ptr %8, i32 0, i32 0
  %10 = load ptr, ptr %5, align 8
  %11 = getelementptr inbounds nuw %struct.NFA, ptr %10, i32 0, i32 2
  %12 = load i8, ptr %11, align 8
  %13 = zext i8 %12 to i32
  store i32 %13, ptr %9, align 4
  %14 = getelementptr inbounds nuw %"struct.ue2::engine_info", ptr %8, i32 0, i32 1
  %15 = load ptr, ptr %5, align 8
  %16 = call noundef i32 @_ZL13nfaAcceptsEodPK3NFA(ptr noundef %15)
  %17 = icmp ne i32 %16, 0
  %18 = zext i1 %17 to i8
  store i8 %18, ptr %14, align 4
  %19 = getelementptr inbounds nuw %"struct.ue2::engine_info", ptr %8, i32 0, i32 3
  %20 = load ptr, ptr %5, align 8
  %21 = getelementptr inbounds nuw %struct.NFA, ptr %20, i32 0, i32 10
  %22 = load i32, ptr %21, align 4
  store i32 %22, ptr %19, align 4
  %23 = getelementptr inbounds nuw %"struct.ue2::engine_info", ptr %8, i32 0, i32 4
  %24 = load ptr, ptr %5, align 8
  %25 = getelementptr inbounds nuw %struct.NFA, ptr %24, i32 0, i32 9
  %26 = load i32, ptr %25, align 8
  store i32 %26, ptr %23, align 4
  %27 = getelementptr inbounds nuw %"struct.ue2::engine_info", ptr %8, i32 0, i32 5
  %28 = load ptr, ptr %5, align 8
  %29 = call noundef i32 @_ZN3ue215state_alignmentERK3NFA(ptr noundef nonnull align 64 dereferenceable(64) %28)
  store i32 %29, ptr %27, align 4
  %30 = getelementptr inbounds nuw %"struct.ue2::engine_info", ptr %8, i32 0, i32 6
  %31 = load i8, ptr %6, align 1, !range !5, !noundef !6
  %32 = trunc i8 %31 to i1
  %33 = zext i1 %32 to i8
  store i8 %33, ptr %30, align 4
  ret void
}