; Function Attrs: mustprogress uwtable
define hidden void @_ZN3ue211engine_infoC2EPK3NFAb(ptr noundef nonnull writeonly align 4 captures(none) dereferenceable(21) initializes((0, 5), (8, 21)) %0, ptr noundef nonnull %1, i1 noundef zeroext %2) unnamed_addr #0 align 2 {
  %4 = zext i1 %2 to i8
  %5 = getelementptr inbounds nuw i8, ptr %1, i64 8
  %6 = load i8, ptr %5, align 8
  %7 = zext i8 %6 to i32
  store i32 %7, ptr %0, align 4
  %8 = getelementptr inbounds nuw i8, ptr %0, i64 4
  %9 = load i32, ptr %1, align 64
  %10 = trunc i32 %9 to i8
  %11 = and i8 %10, 1
  store i8 %11, ptr %8, align 4
  %12 = getelementptr inbounds nuw i8, ptr %0, i64 8
  %13 = getelementptr inbounds nuw i8, ptr %1, i64 28
  %14 = load i32, ptr %13, align 4
  store i32 %14, ptr %12, align 4
  %15 = getelementptr inbounds nuw i8, ptr %0, i64 12
  %16 = getelementptr inbounds nuw i8, ptr %1, i64 24
  %17 = load i32, ptr %16, align 8
  store i32 %17, ptr %15, align 4
  %18 = getelementptr inbounds nuw i8, ptr %0, i64 16
  %19 = tail call noundef i32 @_ZN3ue215state_alignmentERK3NFA(ptr noundef nonnull align 64 dereferenceable(64) %1)
  store i32 %19, ptr %18, align 4
  %20 = getelementptr inbounds nuw i8, ptr %0, i64 20
  store i8 %4, ptr %20, align 4
  ret void
}